target datalayout = "e-m:e-p270:32:32-p271:32:32-p272:64:64-i64:64-i128:128-f80:128-n8:16:32:64-S128"
target triple = "x86_64-pc-linux-gnu"

; Function Attrs: nounwind uwtable
define hidden ptr @lj_strfmt_char(ptr noundef %0, i32 noundef %1) #0 {
  %3 = alloca ptr, align 8
  %4 = alloca i32, align 4
  %5 = alloca [1 x i8], align 1
  store ptr %0, ptr %3, align 8, !tbaa !27
  store i32 %1, ptr %4, align 4, !tbaa !17
  call void @llvm.lifetime.start.p0(i64 1, ptr %5) #10
  %6 = load i32, ptr %4, align 4, !tbaa !17
  %7 = trunc i32 %6 to i8
  %8 = getelementptr inbounds [1 x i8], ptr %5, i64 0, i64 0
  store i8 %7, ptr %8, align 1, !tbaa !16
  %9 = load ptr, ptr %3, align 8, !tbaa !27
  %10 = getelementptr inbounds [1 x i8], ptr %5, i64 0, i64 0
  %11 = call ptr @lj_str_new(ptr noundef %9, ptr noundef %10, i64 noundef 1)
  call void @llvm.lifetime.end.p0(i64 1, ptr %5) #10
  ret ptr %11
}