; Function Attrs: nounwind uwtable
define hidden ptr @lj_strfmt_char(ptr noundef %0, i32 noundef %1) local_unnamed_addr #5 {
  %3 = alloca [1 x i8], align 1
  call void @llvm.lifetime.start.p0(i64 1, ptr nonnull %3) #13
  %4 = trunc i32 %1 to i8
  store i8 %4, ptr %3, align 1, !tbaa !13
  %5 = call ptr @lj_str_new(ptr noundef %0, ptr noundef nonnull %3, i64 noundef 1) #13
  call void @llvm.lifetime.end.p0(i64 1, ptr nonnull %3) #13
  ret ptr %5
}